(dp0
S'tsps'
p1
S'teaspoon'
p2
sS'gs'
p3
S'g'
p4
sS'teaspoons'
p5
S'teaspoon'
p6
sS'dash of'
p7
S'pinch'
p8
sS'ounces'
p9
S'oz'
p10
sS'cups'
p11
S'cup'
p12
sS'cup'
p13
S'cup'
p14
sS'teaspoon'
p15
S'teaspoon'
p16
sS'tablespoons'
p17
S'tsp'
p18
sS'tsp'
p19
S'teaspoon'
p20
sS'oz'
p21
S'oz'
p22
sS'medium'
p23
S'unit'
p24
sS'tablespoon'
p25
S'tablespoon'
p26
sS'tblspoon'
p27
S'tablespoon'
p28
sS'cup(s)'
p29
S'cup'
p30
sS'ozs'
p31
S'oz'
p32
sS'dash'
p33
S'pinch'
p34
sS'c'
p35
S'cup'
p36
sS'grams'
p37
g4
sg4
g4
sS'pinch of'
p38
S'pinch'
p39
sS'ml'
p40
S'ml'
p41
sS'tbsp'
p42
S'tablespoon'
p43
sS'large'
p44
S'unit'
p45
sS'mls'
p46
S'ml'
p47
sS'ounce'
p48
S'oz'
p49
sS'gram'
p50
g4
sS'pinch'
p51
S'pinch'
p52
sS'small'
p53
S'unit'
p54
sS'whole'
p55
S'unit'
p56
sS'tbl'
p57
S'tablespoon'
p58
s.